target datalayout = "e-m:e-p270:32:32-p271:32:32-p272:64:64-i64:64-i128:128-f80:128-n8:16:32:64-S128"
target triple = "x86_64-pc-linux-gnu"

%struct.hwloc_topology = type { i32, i32, i32, ptr, ptr, i64, [20 x i32], [20 x i32], i64, i64, i32, ptr, i64, ptr, i64, [6 x %struct.hwloc_special_level_s], ptr, ptr, %struct.hwloc_binding_hooks, %struct.hwloc_topology_support, %struct.hwloc_infos_s, ptr, ptr, i32, ptr, ptr, i32, i32, ptr, i32, i32, ptr, i32, i32, i32, [5 x float], i32, ptr, ptr, i32, i32, ptr, i32, %struct.hwloc_numanode_attr_s, i32, i32, ptr, i64, i32, ptr, ptr, ptr }
%struct.hwloc_special_level_s = type { i32, ptr, ptr, ptr }
%struct.hwloc_binding_hooks = type { ptr, ptr, ptr, ptr, ptr, ptr, ptr, ptr, ptr, ptr, ptr, ptr, ptr, ptr, ptr, ptr, ptr, ptr, ptr, ptr, ptr, ptr, ptr, ptr }
%struct.hwloc_topology_support = type { ptr, ptr, ptr, ptr }
%struct.hwloc_infos_s = type { ptr, i32, i32 }
%struct.hwloc_numanode_attr_s = type { i64, i32, ptr }
%struct.hwloc_internal_distances_s = type { ptr, i32, i32, ptr, i32, ptr, ptr, i64, i32, ptr, ptr, ptr }

; Function Attrs: nounwind uwtable
define internal void @hwloc_backend_distances_add__cancel(ptr noundef %0) #0 {
  %2 = alloca ptr, align 8
  store ptr %0, ptr %2, align 8, !tbaa !46
  %3 = load ptr, ptr %2, align 8, !tbaa !46
  %4 = getelementptr inbounds nuw %struct.hwloc_internal_distances_s, ptr %3, i32 0, i32 0
  %5 = load ptr, ptr %4, align 8, !tbaa !53
  call void @free(ptr noundef %5) #15
  %6 = load ptr, ptr %2, align 8, !tbaa !46
  %7 = getelementptr inbounds nuw %struct.hwloc_internal_distances_s, ptr %6, i32 0, i32 5
  %8 = load ptr, ptr %7, align 8, !tbaa !55
  call void @free(ptr noundef %8) #15
  %9 = load ptr, ptr %2, align 8, !tbaa !46
  %10 = getelementptr inbounds nuw %struct.hwloc_internal_distances_s, ptr %9, i32 0, i32 9
  %11 = load ptr, ptr %10, align 8, !tbaa !56
  call void @free(ptr noundef %11) #15
  %12 = load ptr, ptr %2, align 8, !tbaa !46
  %13 = getelementptr inbounds nuw %struct.hwloc_internal_distances_s, ptr %12, i32 0, i32 3
  %14 = load ptr, ptr %13, align 8, !tbaa !54
  call void @free(ptr noundef %14) #15
  %15 = load ptr, ptr %2, align 8, !tbaa !46
  %16 = getelementptr inbounds nuw %struct.hwloc_internal_distances_s, ptr %15, i32 0, i32 6
  %17 = load ptr, ptr %16, align 8, !tbaa !57
  call void @free(ptr noundef %17) #15
  %18 = load ptr, ptr %2, align 8, !tbaa !46
  call void @free(ptr noundef %18) #15
  ret void
}

; Function Attrs: nounwind uwtable
define internal i32 @hwloc_backend_distances_add_values_by_index(ptr noundef %0, ptr noundef %1, i32 noundef %2, i32 noundef %3, ptr noundef %4, ptr noundef %5, ptr noundef %6) #0 {
  %8 = alloca i32, align 4
  %9 = alloca ptr, align 8
  %10 = alloca ptr, align 8
  %11 = alloca i32, align 4
  %12 = alloca i32, align 4
  %13 = alloca ptr, align 8
  %14 = alloca ptr, align 8
  %15 = alloca ptr, align 8
  %16 = alloca ptr, align 8
  %17 = alloca ptr, align 8
  %18 = alloca i32, align 4
  store ptr %0, ptr %9, align 8, !tbaa !3
  store ptr %1, ptr %10, align 8, !tbaa !81
  store i32 %2, ptr %11, align 4, !tbaa !38
  store i32 %3, ptr %12, align 4, !tbaa !38
  store ptr %4, ptr %13, align 8, !tbaa !81
  store ptr %5, ptr %14, align 8, !tbaa !83
  store ptr %6, ptr %15, align 8, !tbaa !83
  call void @llvm.lifetime.start.p0(i64 8, ptr %16) #15
  %19 = load ptr, ptr %10, align 8, !tbaa !81
  store ptr %19, ptr %16, align 8, !tbaa !46
  call void @llvm.lifetime.start.p0(i64 8, ptr %17) #15
  %20 = load ptr, ptr %16, align 8, !tbaa !46
  %21 = getelementptr inbounds nuw %struct.hwloc_internal_distances_s, ptr %20, i32 0, i32 4
  %22 = load i32, ptr %21, align 8, !tbaa !61
  %23 = icmp ne i32 %22, 0
  br i1 %23, label %30, label %24

24:                                               ; preds = %7
  %25 = load ptr, ptr %16, align 8, !tbaa !46
  %26 = getelementptr inbounds nuw %struct.hwloc_internal_distances_s, ptr %25, i32 0, i32 8
  %27 = load i32, ptr %26, align 8, !tbaa !65
  %28 = and i32 %27, 2
  %29 = icmp ne i32 %28, 0
  br i1 %29, label %32, label %30

30:                                               ; preds = %24, %7
  %31 = call ptr @__errno_location() #17
  store i32 22, ptr %31, align 4, !tbaa !38
  br label %84

32:                                               ; preds = %24
  %33 = load i32, ptr %11, align 4, !tbaa !38
  %34 = icmp ult i32 %33, 2
  br i1 %34, label %47, label %35

35:                                               ; preds = %32
  %36 = load ptr, ptr %14, align 8, !tbaa !83
  %37 = icmp ne ptr %36, null
  br i1 %37, label %38, label %47

38:                                               ; preds = %35
  %39 = load ptr, ptr %15, align 8, !tbaa !83
  %40 = icmp ne ptr %39, null
  br i1 %40, label %41, label %47

41:                                               ; preds = %38
  %42 = load i32, ptr %12, align 4, !tbaa !38
  %43 = icmp eq i32 %42, -1
  br i1 %43, label %44, label %49

44:                                               ; preds = %41
  %45 = load ptr, ptr %13, align 8, !tbaa !81
  %46 = icmp ne ptr %45, null
  br i1 %46, label %49, label %47

47:                                               ; preds = %44, %38, %35, %32
  %48 = call ptr @__errno_location() #17
  store i32 22, ptr %48, align 4, !tbaa !38
  br label %84

49:                                               ; preds = %44, %41
  %50 = load i32, ptr %11, align 4, !tbaa !38
  %51 = zext i32 %50 to i64
  %52 = mul i64 %51, 8
  %53 = call noalias ptr @malloc(i64 noundef %52) #19
  store ptr %53, ptr %17, align 8, !tbaa !82
  %54 = load ptr, ptr %17, align 8, !tbaa !82
  %55 = icmp ne ptr %54, null
  br i1 %55, label %57, label %56

56:                                               ; preds = %49
  br label %84

57:                                               ; preds = %49
  %58 = load i32, ptr %11, align 4, !tbaa !38
  %59 = load ptr, ptr %16, align 8, !tbaa !46
  %60 = getelementptr inbounds nuw %struct.hwloc_internal_distances_s, ptr %59, i32 0, i32 4
  store i32 %58, ptr %60, align 8, !tbaa !61
  %61 = load ptr, ptr %17, align 8, !tbaa !82
  %62 = load ptr, ptr %16, align 8, !tbaa !46
  %63 = getelementptr inbounds nuw %struct.hwloc_internal_distances_s, ptr %62, i32 0, i32 9
  store ptr %61, ptr %63, align 8, !tbaa !56
  %64 = load ptr, ptr %14, align 8, !tbaa !83
  %65 = load ptr, ptr %16, align 8, !tbaa !46
  %66 = getelementptr inbounds nuw %struct.hwloc_internal_distances_s, ptr %65, i32 0, i32 5
  store ptr %64, ptr %66, align 8, !tbaa !55
  %67 = load i32, ptr %12, align 4, !tbaa !38
  %68 = load ptr, ptr %16, align 8, !tbaa !46
  %69 = getelementptr inbounds nuw %struct.hwloc_internal_distances_s, ptr %68, i32 0, i32 2
  store i32 %67, ptr %69, align 4, !tbaa !62
  %70 = load ptr, ptr %13, align 8, !tbaa !81
  %71 = load ptr, ptr %16, align 8, !tbaa !46
  %72 = getelementptr inbounds nuw %struct.hwloc_internal_distances_s, ptr %71, i32 0, i32 3
  store ptr %70, ptr %72, align 8, !tbaa !54
  %73 = load ptr, ptr %15, align 8, !tbaa !83
  %74 = load ptr, ptr %16, align 8, !tbaa !46
  %75 = getelementptr inbounds nuw %struct.hwloc_internal_distances_s, ptr %74, i32 0, i32 6
  store ptr %73, ptr %75, align 8, !tbaa !57
  %76 = load ptr, ptr %13, align 8, !tbaa !81
  %77 = icmp ne ptr %76, null
  br i1 %77, label %78, label %83

78:                                               ; preds = %57
  %79 = load ptr, ptr %16, align 8, !tbaa !46
  %80 = getelementptr inbounds nuw %struct.hwloc_internal_distances_s, ptr %79, i32 0, i32 7
  %81 = load i64, ptr %80, align 8, !tbaa !63
  %82 = or i64 %81, 16
  store i64 %82, ptr %80, align 8, !tbaa !63
  br label %83

83:                                               ; preds = %78, %57
  store i32 0, ptr %8, align 4
  store i32 1, ptr %18, align 4
  br label %86

84:                                               ; preds = %56, %47, %30
  %85 = load ptr, ptr %16, align 8, !tbaa !46
  call void @hwloc_backend_distances_add__cancel(ptr noundef %85)
  store i32 -1, ptr %8, align 4
  store i32 1, ptr %18, align 4
  br label %86

86:                                               ; preds = %84, %83
  call void @llvm.lifetime.end.p0(i64 8, ptr %17) #15
  call void @llvm.lifetime.end.p0(i64 8, ptr %16) #15
  %87 = load i32, ptr %8, align 4
  ret i32 %87
}

; Function Attrs: nounwind uwtable
define ptr @hwloc_backend_distances_add_create(ptr noundef %0, ptr noundef %1, i64 noundef %2, i64 noundef %3) #0 {
  %5 = alloca ptr, align 8
  %6 = alloca ptr, align 8
  %7 = alloca ptr, align 8
  %8 = alloca i64, align 8
  %9 = alloca i64, align 8
  %10 = alloca ptr, align 8
  %11 = alloca i32, align 4
  store ptr %0, ptr %6, align 8, !tbaa !3
  store ptr %1, ptr %7, align 8, !tbaa !39
  store i64 %2, ptr %8, align 8, !tbaa !80
  store i64 %3, ptr %9, align 8, !tbaa !80
  call void @llvm.lifetime.start.p0(i64 8, ptr %10) #15
  %12 = load i64, ptr %9, align 8, !tbaa !80
  %13 = icmp ne i64 %12, 0
  br i1 %13, label %14, label %16

14:                                               ; preds = %4
  %15 = call ptr @__errno_location() #17
  store i32 22, ptr %15, align 4, !tbaa !38
  br label %62

16:                                               ; preds = %4
  %17 = call noalias ptr @calloc(i64 noundef 1, i64 noundef 88) #18
  store ptr %17, ptr %10, align 8, !tbaa !46
  %18 = load ptr, ptr %10, align 8, !tbaa !46
  %19 = icmp ne ptr %18, null
  br i1 %19, label %21, label %20

20:                                               ; preds = %16
  br label %62

21:                                               ; preds = %16
  %22 = load ptr, ptr %7, align 8, !tbaa !39
  %23 = icmp ne ptr %22, null
  br i1 %23, label %24, label %35

24:                                               ; preds = %21
  %25 = load ptr, ptr %7, align 8, !tbaa !39
  %26 = call noalias ptr @strdup(ptr noundef %25) #15
  %27 = load ptr, ptr %10, align 8, !tbaa !46
  %28 = getelementptr inbounds nuw %struct.hwloc_internal_distances_s, ptr %27, i32 0, i32 0
  store ptr %26, ptr %28, align 8, !tbaa !53
  %29 = load ptr, ptr %10, align 8, !tbaa !46
  %30 = getelementptr inbounds nuw %struct.hwloc_internal_distances_s, ptr %29, i32 0, i32 0
  %31 = load ptr, ptr %30, align 8, !tbaa !53
  %32 = icmp ne ptr %31, null
  br i1 %32, label %34, label %33

33:                                               ; preds = %24
  br label %60

34:                                               ; preds = %24
  br label %35

35:                                               ; preds = %34, %21
  %36 = load i64, ptr %8, align 8, !tbaa !80
  %37 = load ptr, ptr %10, align 8, !tbaa !46
  %38 = getelementptr inbounds nuw %struct.hwloc_internal_distances_s, ptr %37, i32 0, i32 7
  store i64 %36, ptr %38, align 8, !tbaa !63
  %39 = load ptr, ptr %10, align 8, !tbaa !46
  %40 = getelementptr inbounds nuw %struct.hwloc_internal_distances_s, ptr %39, i32 0, i32 8
  store i32 2, ptr %40, align 8, !tbaa !65
  %41 = load ptr, ptr %10, align 8, !tbaa !46
  %42 = getelementptr inbounds nuw %struct.hwloc_internal_distances_s, ptr %41, i32 0, i32 2
  store i32 -1, ptr %42, align 4, !tbaa !62
  %43 = load ptr, ptr %10, align 8, !tbaa !46
  %44 = getelementptr inbounds nuw %struct.hwloc_internal_distances_s, ptr %43, i32 0, i32 3
  store ptr null, ptr %44, align 8, !tbaa !54
  %45 = load ptr, ptr %10, align 8, !tbaa !46
  %46 = getelementptr inbounds nuw %struct.hwloc_internal_distances_s, ptr %45, i32 0, i32 4
  store i32 0, ptr %46, align 8, !tbaa !61
  %47 = load ptr, ptr %10, align 8, !tbaa !46
  %48 = getelementptr inbounds nuw %struct.hwloc_internal_distances_s, ptr %47, i32 0, i32 5
  store ptr null, ptr %48, align 8, !tbaa !55
  %49 = load ptr, ptr %10, align 8, !tbaa !46
  %50 = getelementptr inbounds nuw %struct.hwloc_internal_distances_s, ptr %49, i32 0, i32 9
  store ptr null, ptr %50, align 8, !tbaa !56
  %51 = load ptr, ptr %10, align 8, !tbaa !46
  %52 = getelementptr inbounds nuw %struct.hwloc_internal_distances_s, ptr %51, i32 0, i32 6
  store ptr null, ptr %52, align 8, !tbaa !57
  %53 = load ptr, ptr %6, align 8, !tbaa !3
  %54 = getelementptr inbounds nuw %struct.hwloc_topology, ptr %53, i32 0, i32 26
  %55 = load i32, ptr %54, align 8, !tbaa !34
  %56 = add i32 %55, 1
  store i32 %56, ptr %54, align 8, !tbaa !34
  %57 = load ptr, ptr %10, align 8, !tbaa !46
  %58 = getelementptr inbounds nuw %struct.hwloc_internal_distances_s, ptr %57, i32 0, i32 1
  store i32 %55, ptr %58, align 8, !tbaa !64
  %59 = load ptr, ptr %10, align 8, !tbaa !46
  store ptr %59, ptr %5, align 8
  store i32 1, ptr %11, align 4
  br label %63

60:                                               ; preds = %33
  %61 = load ptr, ptr %10, align 8, !tbaa !46
  call void @hwloc_backend_distances_add__cancel(ptr noundef %61)
  br label %62

62:                                               ; preds = %60, %20, %14
  store ptr null, ptr %5, align 8
  store i32 1, ptr %11, align 4
  br label %63

63:                                               ; preds = %62, %35
  call void @llvm.lifetime.end.p0(i64 8, ptr %10) #15
  %64 = load ptr, ptr %5, align 8
  ret ptr %64
}

; Function Attrs: nounwind uwtable
define hidden i32 @hwloc_internal_distances_add_by_index(ptr noundef %0, ptr noundef %1, i32 noundef %2, ptr noundef %3, i32 noundef %4, ptr noundef %5, ptr noundef %6, i64 noundef %7, i64 noundef %8) #0 {
  %10 = alloca i32, align 4
  %11 = alloca ptr, align 8
  %12 = alloca ptr, align 8
  %13 = alloca i32, align 4
  %14 = alloca ptr, align 8
  %15 = alloca i32, align 4
  %16 = alloca ptr, align 8
  %17 = alloca ptr, align 8
  %18 = alloca i64, align 8
  %19 = alloca i64, align 8
  %20 = alloca ptr, align 8
  %21 = alloca i32, align 4
  %22 = alloca i32, align 4
  store ptr %0, ptr %11, align 8, !tbaa !3
  store ptr %1, ptr %12, align 8, !tbaa !39
  store i32 %2, ptr %13, align 4, !tbaa !38
  store ptr %3, ptr %14, align 8, !tbaa !81
  store i32 %4, ptr %15, align 4, !tbaa !38
  store ptr %5, ptr %16, align 8, !tbaa !83
  store ptr %6, ptr %17, align 8, !tbaa !83
  store i64 %7, ptr %18, align 8, !tbaa !80
  store i64 %8, ptr %19, align 8, !tbaa !80
  call void @llvm.lifetime.start.p0(i64 8, ptr %20) #15
  call void @llvm.lifetime.start.p0(i64 4, ptr %21) #15
  %23 = load ptr, ptr %11, align 8, !tbaa !3
  %24 = load ptr, ptr %12, align 8, !tbaa !39
  %25 = load i64, ptr %18, align 8, !tbaa !80
  %26 = call ptr @hwloc_backend_distances_add_create(ptr noundef %23, ptr noundef %24, i64 noundef %25, i64 noundef 0)
  store ptr %26, ptr %20, align 8, !tbaa !81
  %27 = load ptr, ptr %20, align 8, !tbaa !81
  %28 = icmp ne ptr %27, null
  br i1 %28, label %30, label %29

29:                                               ; preds = %9
  br label %51

30:                                               ; preds = %9
  %31 = load ptr, ptr %11, align 8, !tbaa !3
  %32 = load ptr, ptr %20, align 8, !tbaa !81
  %33 = load i32, ptr %15, align 4, !tbaa !38
  %34 = load i32, ptr %13, align 4, !tbaa !38
  %35 = load ptr, ptr %14, align 8, !tbaa !81
  %36 = load ptr, ptr %16, align 8, !tbaa !83
  %37 = load ptr, ptr %17, align 8, !tbaa !83
  %38 = call i32 @hwloc_backend_distances_add_values_by_index(ptr noundef %31, ptr noundef %32, i32 noundef %33, i32 noundef %34, ptr noundef %35, ptr noundef %36, ptr noundef %37)
  store i32 %38, ptr %21, align 4, !tbaa !38
  %39 = load i32, ptr %21, align 4, !tbaa !38
  %40 = icmp slt i32 %39, 0
  br i1 %40, label %41, label %42

41:                                               ; preds = %30
  br label %51

42:                                               ; preds = %30
  store ptr null, ptr %16, align 8, !tbaa !83
  store ptr null, ptr %14, align 8, !tbaa !81
  store ptr null, ptr %17, align 8, !tbaa !83
  %43 = load ptr, ptr %11, align 8, !tbaa !3
  %44 = load ptr, ptr %20, align 8, !tbaa !81
  %45 = load i64, ptr %19, align 8, !tbaa !80
  %46 = call i32 @hwloc_backend_distances_add_commit(ptr noundef %43, ptr noundef %44, i64 noundef %45)
  store i32 %46, ptr %21, align 4, !tbaa !38
  %47 = load i32, ptr %21, align 4, !tbaa !38
  %48 = icmp slt i32 %47, 0
  br i1 %48, label %49, label %50

49:                                               ; preds = %42
  br label %51

50:                                               ; preds = %42
  store i32 0, ptr %10, align 4
  store i32 1, ptr %22, align 4
  br label %55

51:                                               ; preds = %49, %41, %29
  %52 = load ptr, ptr %16, align 8, !tbaa !83
  call void @free(ptr noundef %52) #15
  %53 = load ptr, ptr %14, align 8, !tbaa !81
  call void @free(ptr noundef %53) #15
  %54 = load ptr, ptr %17, align 8, !tbaa !83
  call void @free(ptr noundef %54) #15
  store i32 -1, ptr %10, align 4
  store i32 1, ptr %22, align 4
  br label %55

55:                                               ; preds = %51, %50
  call void @llvm.lifetime.end.p0(i64 4, ptr %21) #15
  call void @llvm.lifetime.end.p0(i64 8, ptr %20) #15
  %56 = load i32, ptr %10, align 4
  ret i32 %56
}