; Function Attrs: nounwind uwtable
define hidden range(i32 -1, 1) i32 @hwloc_internal_distances_add_by_index(ptr noundef %0, ptr noundef readonly captures(address_is_null) %1, i32 noundef %2, ptr noundef %3, i32 noundef %4, ptr noundef %5, ptr noundef %6, i64 noundef %7, i64 noundef %8) local_unnamed_addr #1 {
  %10 = tail call noalias dereferenceable_or_null(88) ptr @calloc(i64 noundef 1, i64 noundef 88) #31
  %.not21.i = icmp eq ptr %10, null
  br i1 %.not21.i, label %hwloc_backend_distances_add_create.exit.thread, label %11

11:                                               ; preds = %9
  %.not22.i = icmp eq ptr %1, null
  br i1 %.not22.i, label %14, label %12

12:                                               ; preds = %11
  %13 = tail call noalias ptr @strdup(ptr noundef nonnull readonly %1) #27
  store ptr %13, ptr %10, align 8, !tbaa !43
  %.not23.i = icmp eq ptr %13, null
  br i1 %.not23.i, label %hwloc_backend_distances_add_create.exit.thread.sink.split, label %14

14:                                               ; preds = %12, %11
  %15 = phi ptr [ %13, %12 ], [ null, %11 ]
  %16 = getelementptr inbounds nuw i8, ptr %10, i64 48
  store i64 %7, ptr %16, align 8, !tbaa !57
  %17 = getelementptr inbounds nuw i8, ptr %10, i64 56
  store i32 2, ptr %17, align 8, !tbaa !59
  %18 = getelementptr inbounds nuw i8, ptr %10, i64 12
  store i32 -1, ptr %18, align 4, !tbaa !56
  %19 = getelementptr inbounds nuw i8, ptr %0, i64 744
  %20 = load i32, ptr %19, align 8, !tbaa !50
  %21 = add i32 %20, 1
  store i32 %21, ptr %19, align 8, !tbaa !50
  %22 = getelementptr inbounds nuw i8, ptr %10, i64 8
  store i32 %20, ptr %22, align 8, !tbaa !58
  %23 = getelementptr inbounds nuw i8, ptr %10, i64 24
  %24 = icmp ugt i32 %4, 1
  %25 = icmp ne ptr %5, null
  %or.cond.i = and i1 %24, %25
  %26 = icmp ne ptr %6, null
  %or.cond3.i = and i1 %or.cond.i, %26
  br i1 %or.cond3.i, label %27, label %.sink.split.i

27:                                               ; preds = %14
  %28 = icmp ne i32 %2, -1
  %29 = icmp ne ptr %3, null
  %or.cond5.i = or i1 %28, %29
  br i1 %or.cond5.i, label %30, label %.sink.split.i

30:                                               ; preds = %27
  %31 = zext i32 %4 to i64
  %32 = shl nuw nsw i64 %31, 3
  %33 = tail call noalias ptr @malloc(i64 noundef %32) #29
  %.not35.i = icmp eq ptr %33, null
  br i1 %.not35.i, label %hwloc_backend_distances_add_values_by_index.exit, label %34

34:                                               ; preds = %30
  store i32 %4, ptr %23, align 8, !tbaa !53
  %35 = getelementptr inbounds nuw i8, ptr %10, i64 64
  store ptr %33, ptr %35, align 8, !tbaa !46
  %36 = getelementptr inbounds nuw i8, ptr %10, i64 32
  store ptr %5, ptr %36, align 8, !tbaa !45
  store i32 %2, ptr %18, align 4, !tbaa !56
  %37 = getelementptr inbounds nuw i8, ptr %10, i64 16
  store ptr %3, ptr %37, align 8, !tbaa !44
  %38 = getelementptr inbounds nuw i8, ptr %10, i64 40
  store ptr %6, ptr %38, align 8, !tbaa !47
  br i1 %29, label %39, label %42

39:                                               ; preds = %34
  %40 = or i64 %7, 16
  store i64 %40, ptr %16, align 8, !tbaa !57
  br label %42

.sink.split.i:                                    ; preds = %27, %14
  %41 = tail call ptr @__errno_location() #30
  store i32 22, ptr %41, align 4, !tbaa !3
  br label %hwloc_backend_distances_add_values_by_index.exit

hwloc_backend_distances_add_values_by_index.exit: ; preds = %30, %.sink.split.i
  tail call void @free(ptr noundef %15) #27
  br label %hwloc_backend_distances_add_create.exit.thread.sink.split

42:                                               ; preds = %39, %34
  %43 = tail call i32 @hwloc_backend_distances_add_commit(ptr noundef nonnull %0, ptr noundef nonnull %10, i64 noundef %8)
  %44 = icmp slt i32 %43, 0
  br i1 %44, label %hwloc_backend_distances_add_create.exit.thread, label %45

hwloc_backend_distances_add_create.exit.thread.sink.split: ; preds = %12, %hwloc_backend_distances_add_values_by_index.exit
  tail call void @free(ptr noundef nonnull %10) #27
  br label %hwloc_backend_distances_add_create.exit.thread

hwloc_backend_distances_add_create.exit.thread:   ; preds = %hwloc_backend_distances_add_create.exit.thread.sink.split, %9, %42
  %.021 = phi ptr [ null, %42 ], [ %6, %9 ], [ %6, %hwloc_backend_distances_add_create.exit.thread.sink.split ]
  %.020 = phi ptr [ null, %42 ], [ %5, %9 ], [ %5, %hwloc_backend_distances_add_create.exit.thread.sink.split ]
  %.019 = phi ptr [ null, %42 ], [ %3, %9 ], [ %3, %hwloc_backend_distances_add_create.exit.thread.sink.split ]
  tail call void @free(ptr noundef %.020) #27
  tail call void @free(ptr noundef %.019) #27
  tail call void @free(ptr noundef %.021) #27
  br label %45

45:                                               ; preds = %42, %hwloc_backend_distances_add_create.exit.thread
  %.0 = phi i32 [ -1, %hwloc_backend_distances_add_create.exit.thread ], [ 0, %42 ]
  ret i32 %.0
}